; Function Attrs: mustprogress uwtable
define void @Z3_get_version(ptr noundef %0, ptr noundef %1, ptr noundef %2, ptr noundef %3) local_unnamed_addr #3 personality ptr @__gxx_personality_v0 {
  %5 = atomicrmw xchg ptr @g_z3_log_enabled, i8 0 seq_cst, align 1
  %6 = trunc i8 %5 to i1
  br i1 %6, label %7, label %9

7:                                                ; preds = %4
  invoke void @_Z18log_Z3_get_versionPjS_S_S_(ptr noundef %0, ptr noundef %1, ptr noundef %2, ptr noundef %3)
          to label %10 unwind label %_ZN10z3_log_ctxD2Ev.exit

_ZN10z3_log_ctxD2Ev.exit:                         ; preds = %7
  %8 = landingpad { ptr, i32 }
          cleanup
  store atomic i8 1, ptr @g_z3_log_enabled seq_cst, align 1
  resume { ptr, i32 } %8

9:                                                ; preds = %4
  store i32 4, ptr %0, align 4, !tbaa !19
  store i32 14, ptr %1, align 4, !tbaa !19
  store i32 1, ptr %2, align 4, !tbaa !19
  store i32 0, ptr %3, align 4, !tbaa !19
  br label %_ZN10z3_log_ctxD2Ev.exit9

10:                                               ; preds = %7
  store i32 4, ptr %0, align 4, !tbaa !19
  store i32 14, ptr %1, align 4, !tbaa !19
  store i32 1, ptr %2, align 4, !tbaa !19
  store i32 0, ptr %3, align 4, !tbaa !19
  store atomic i8 1, ptr @g_z3_log_enabled seq_cst, align 1
  br label %_ZN10z3_log_ctxD2Ev.exit9

_ZN10z3_log_ctxD2Ev.exit9:                        ; preds = %9, %10
  ret void
}